target datalayout = "e-m:e-p270:32:32-p271:32:32-p272:64:64-i64:64-i128:128-f80:128-n8:16:32:64-S128"
target triple = "x86_64-pc-linux-gnu"

%struct.avifScalingMode = type { %struct.avifFraction, %struct.avifFraction }
%struct.avifFraction = type { i32, i32 }
%struct.avifCodecEncodeOutput = type { %struct.avifEncodeSampleArray }
%struct.avifEncodeSampleArray = type { ptr, i32, i32, i32 }
%struct.avifEncodeSample = type { %struct.avifRWData, i32 }
%struct.avifRWData = type { ptr, i64 }
%struct.avifEncoder = type { i32, i32, i32, i32, i64, i32, i32, i32, i32, i32, i32, i32, i32, i32, i32, i32, %struct.avifScalingMode, %struct.avifIOStats, %struct.avifDiagnostics, ptr, ptr, i32 }
%struct.avifIOStats = type { i64, i64 }
%struct.avifDiagnostics = type { [256 x i8] }
%struct.avifEncoderData = type { %struct.avifEncoderItemArray, %struct.avifEncoderFrameArray, i32, i32, i32, i32, %struct.avifEncoder, i32, i32, i32, i32, ptr, i16, i16, %struct.avifEncoderItemIdArray, i32, i32, i64, ptr, ptr }
%struct.avifEncoderItemArray = type { ptr, i32, i32, i32 }
%struct.avifEncoderFrameArray = type { ptr, i32, i32, i32 }
%struct.avifEncoderItemIdArray = type { ptr, i32, i32, i32 }
%struct.avifEncoderItem = type { i16, [4 x i8], ptr, ptr, %struct.avifRWData, %struct.avifCodecConfigurationBox, i32, i32, i32, ptr, i64, ptr, i64, %struct.avifOffsetFixupArray, i16, ptr, i32, i32, i32, i32, i32, i16, %struct.ipmaArray }
%struct.avifCodecConfigurationBox = type { i8, i8, i8, i8, i8, i8, i8, i8, i8 }
%struct.avifOffsetFixupArray = type { ptr, i32, i32, i32 }
%struct.ipmaArray = type { [16 x i8], [16 x i32], i8 }

; Function Attrs: nounwind uwtable
define hidden void @avifCodecEncodeOutputDestroy(ptr noundef %0) #0 {
  %2 = alloca ptr, align 8
  %3 = alloca i32, align 4
  store ptr %0, ptr %2, align 8
  store i32 0, ptr %3, align 4
  br label %4

4:                                                ; preds = %20, %1
  %5 = load i32, ptr %3, align 4
  %6 = load ptr, ptr %2, align 8
  %7 = getelementptr inbounds nuw %struct.avifCodecEncodeOutput, ptr %6, i32 0, i32 0
  %8 = getelementptr inbounds nuw %struct.avifEncodeSampleArray, ptr %7, i32 0, i32 2
  %9 = load i32, ptr %8, align 4
  %10 = icmp ult i32 %5, %9
  br i1 %10, label %11, label %23

11:                                               ; preds = %4
  %12 = load ptr, ptr %2, align 8
  %13 = getelementptr inbounds nuw %struct.avifCodecEncodeOutput, ptr %12, i32 0, i32 0
  %14 = getelementptr inbounds nuw %struct.avifEncodeSampleArray, ptr %13, i32 0, i32 0
  %15 = load ptr, ptr %14, align 8
  %16 = load i32, ptr %3, align 4
  %17 = zext i32 %16 to i64
  %18 = getelementptr inbounds %struct.avifEncodeSample, ptr %15, i64 %17
  %19 = getelementptr inbounds nuw %struct.avifEncodeSample, ptr %18, i32 0, i32 0
  call void @avifRWDataFree(ptr noundef %19)
  br label %20

20:                                               ; preds = %11
  %21 = load i32, ptr %3, align 4
  %22 = add i32 %21, 1
  store i32 %22, ptr %3, align 4
  br label %4, !llvm.loop !6

23:                                               ; preds = %4
  %24 = load ptr, ptr %2, align 8
  %25 = getelementptr inbounds nuw %struct.avifCodecEncodeOutput, ptr %24, i32 0, i32 0
  call void @avifArrayDestroy(ptr noundef %25)
  %26 = load ptr, ptr %2, align 8
  call void @avifFree(ptr noundef %26)
  ret void
}

; Function Attrs: nounwind uwtable
define internal void @avifEncoderDataDestroy(ptr noundef %0) #0 {
  %2 = alloca ptr, align 8
  %3 = alloca i32, align 4
  %4 = alloca ptr, align 8
  store ptr %0, ptr %2, align 8
  store i32 0, ptr %3, align 4
  br label %5

5:                                                ; preds = %36, %1
  %6 = load i32, ptr %3, align 4
  %7 = load ptr, ptr %2, align 8
  %8 = getelementptr inbounds nuw %struct.avifEncoderData, ptr %7, i32 0, i32 0
  %9 = getelementptr inbounds nuw %struct.avifEncoderItemArray, ptr %8, i32 0, i32 2
  %10 = load i32, ptr %9, align 4
  %11 = icmp ult i32 %6, %10
  br i1 %11, label %12, label %39

12:                                               ; preds = %5
  %13 = load ptr, ptr %2, align 8
  %14 = getelementptr inbounds nuw %struct.avifEncoderData, ptr %13, i32 0, i32 0
  %15 = getelementptr inbounds nuw %struct.avifEncoderItemArray, ptr %14, i32 0, i32 0
  %16 = load ptr, ptr %15, align 8
  %17 = load i32, ptr %3, align 4
  %18 = zext i32 %17 to i64
  %19 = getelementptr inbounds %struct.avifEncoderItem, ptr %16, i64 %18
  store ptr %19, ptr %4, align 8
  %20 = load ptr, ptr %4, align 8
  %21 = getelementptr inbounds nuw %struct.avifEncoderItem, ptr %20, i32 0, i32 2
  %22 = load ptr, ptr %21, align 8
  %23 = icmp ne ptr %22, null
  br i1 %23, label %24, label %28

24:                                               ; preds = %12
  %25 = load ptr, ptr %4, align 8
  %26 = getelementptr inbounds nuw %struct.avifEncoderItem, ptr %25, i32 0, i32 2
  %27 = load ptr, ptr %26, align 8
  call void @avifCodecDestroy(ptr noundef %27)
  br label %28

28:                                               ; preds = %24, %12
  %29 = load ptr, ptr %4, align 8
  %30 = getelementptr inbounds nuw %struct.avifEncoderItem, ptr %29, i32 0, i32 3
  %31 = load ptr, ptr %30, align 8
  call void @avifCodecEncodeOutputDestroy(ptr noundef %31)
  %32 = load ptr, ptr %4, align 8
  %33 = getelementptr inbounds nuw %struct.avifEncoderItem, ptr %32, i32 0, i32 4
  call void @avifRWDataFree(ptr noundef %33)
  %34 = load ptr, ptr %4, align 8
  %35 = getelementptr inbounds nuw %struct.avifEncoderItem, ptr %34, i32 0, i32 13
  call void @avifArrayDestroy(ptr noundef %35)
  br label %36

36:                                               ; preds = %28
  %37 = load i32, ptr %3, align 4
  %38 = add i32 %37, 1
  store i32 %38, ptr %3, align 4
  br label %5, !llvm.loop !7

39:                                               ; preds = %5
  %40 = load ptr, ptr %2, align 8
  %41 = getelementptr inbounds nuw %struct.avifEncoderData, ptr %40, i32 0, i32 11
  %42 = load ptr, ptr %41, align 8
  %43 = icmp ne ptr %42, null
  br i1 %43, label %44, label %48

44:                                               ; preds = %39
  %45 = load ptr, ptr %2, align 8
  %46 = getelementptr inbounds nuw %struct.avifEncoderData, ptr %45, i32 0, i32 11
  %47 = load ptr, ptr %46, align 8
  call void @avifImageDestroy(ptr noundef %47)
  br label %48

48:                                               ; preds = %44, %39
  %49 = load ptr, ptr %2, align 8
  %50 = getelementptr inbounds nuw %struct.avifEncoderData, ptr %49, i32 0, i32 0
  call void @avifArrayDestroy(ptr noundef %50)
  %51 = load ptr, ptr %2, align 8
  %52 = getelementptr inbounds nuw %struct.avifEncoderData, ptr %51, i32 0, i32 1
  call void @avifArrayDestroy(ptr noundef %52)
  %53 = load ptr, ptr %2, align 8
  %54 = getelementptr inbounds nuw %struct.avifEncoderData, ptr %53, i32 0, i32 14
  call void @avifArrayDestroy(ptr noundef %54)
  %55 = load ptr, ptr %2, align 8
  call void @avifFree(ptr noundef %55)
  ret void
}