; Function Attrs: nounwind uwtable
define internal fastcc void @avifEncoderDataDestroy(ptr noundef %0) unnamed_addr #1 {
  %2 = getelementptr inbounds nuw i8, ptr %0, i64 12
  %3 = load i32, ptr %2, align 4
  %.not19 = icmp eq i32 %3, 0
  br i1 %.not19, label %._crit_edge, label %.lr.ph

.lr.ph:                                           ; preds = %1, %avifCodecEncodeOutputDestroy.exit
  %indvars.iv = phi i64 [ %indvars.iv.next, %avifCodecEncodeOutputDestroy.exit ], [ 0, %1 ]
  %4 = load ptr, ptr %0, align 8
  %5 = getelementptr inbounds %struct.avifEncoderItem, ptr %4, i64 %indvars.iv
  %6 = getelementptr inbounds nuw i8, ptr %5, i64 8
  %7 = load ptr, ptr %6, align 8
  %.not17 = icmp eq ptr %7, null
  br i1 %.not17, label %9, label %8

8:                                                ; preds = %.lr.ph
  tail call void @avifCodecDestroy(ptr noundef nonnull %7) #13
  br label %9

9:                                                ; preds = %8, %.lr.ph
  %10 = getelementptr inbounds nuw i8, ptr %5, i64 16
  %11 = load ptr, ptr %10, align 8
  %12 = getelementptr inbounds nuw i8, ptr %11, i64 12
  %13 = load i32, ptr %12, align 4
  %.not.i = icmp eq i32 %13, 0
  br i1 %.not.i, label %avifCodecEncodeOutputDestroy.exit, label %.lr.ph.i

.lr.ph.i:                                         ; preds = %9, %.lr.ph.i
  %indvars.iv.i = phi i64 [ %indvars.iv.next.i, %.lr.ph.i ], [ 0, %9 ]
  %14 = load ptr, ptr %11, align 8
  %15 = getelementptr inbounds %struct.avifEncodeSample, ptr %14, i64 %indvars.iv.i
  tail call void @avifRWDataFree(ptr noundef %15) #13
  %indvars.iv.next.i = add nuw nsw i64 %indvars.iv.i, 1
  %16 = load i32, ptr %12, align 4
  %17 = zext i32 %16 to i64
  %18 = icmp ult i64 %indvars.iv.next.i, %17
  br i1 %18, label %.lr.ph.i, label %avifCodecEncodeOutputDestroy.exit, !llvm.loop !4

avifCodecEncodeOutputDestroy.exit:                ; preds = %.lr.ph.i, %9
  tail call void @avifArrayDestroy(ptr noundef nonnull %11) #13
  tail call void @avifFree(ptr noundef nonnull %11) #13
  %19 = getelementptr inbounds nuw i8, ptr %5, i64 24
  tail call void @avifRWDataFree(ptr noundef nonnull %19) #13
  %20 = getelementptr inbounds nuw i8, ptr %5, i64 96
  tail call void @avifArrayDestroy(ptr noundef nonnull %20) #13
  %indvars.iv.next = add nuw nsw i64 %indvars.iv, 1
  %21 = load i32, ptr %2, align 4
  %22 = zext i32 %21 to i64
  %23 = icmp ult i64 %indvars.iv.next, %22
  br i1 %23, label %.lr.ph, label %._crit_edge, !llvm.loop !6

._crit_edge:                                      ; preds = %avifCodecEncodeOutputDestroy.exit, %1
  %24 = getelementptr inbounds nuw i8, ptr %0, i64 464
  %25 = load ptr, ptr %24, align 8
  %.not = icmp eq ptr %25, null
  br i1 %.not, label %27, label %26

26:                                               ; preds = %._crit_edge
  tail call void @avifImageDestroy(ptr noundef nonnull %25) #13
  br label %27

27:                                               ; preds = %26, %._crit_edge
  tail call void @avifArrayDestroy(ptr noundef nonnull %0) #13
  %28 = getelementptr inbounds nuw i8, ptr %0, i64 24
  tail call void @avifArrayDestroy(ptr noundef nonnull %28) #13
  %29 = getelementptr inbounds nuw i8, ptr %0, i64 480
  tail call void @avifArrayDestroy(ptr noundef nonnull %29) #13
  tail call void @avifFree(ptr noundef nonnull %0) #13
  ret void
}